; Function Attrs: nounwind uwtable
define range(i32 -1, 1) i32 @H5Ssel_iter_close(i64 noundef %0) local_unnamed_addr #3 {
  %2 = load i8, ptr @H5_libinit_g, align 1
  %3 = trunc i8 %2 to i1
  %4 = load i8, ptr @H5_libterm_g, align 1
  %5 = trunc i8 %4 to i1
  %6 = select i1 %3, i1 true, i1 %5
  br i1 %6, label %14, label %7

7:                                                ; preds = %1
  %8 = tail call i32 @H5_init_library() #7
  %9 = icmp slt i32 %8, 0
  br i1 %9, label %10, label %14

10:                                               ; preds = %7
  %11 = load i64, ptr @H5E_FUNC_g, align 8
  %12 = load i64, ptr @H5E_CANTINIT_g, align 8
  %13 = tail call i32 (ptr, ptr, i32, i64, i64, ptr, ...) @H5E_printf_stack(ptr noundef nonnull @.str.1, ptr noundef nonnull @__func__.H5Ssel_iter_close, i32 noundef 3125, i64 noundef %11, i64 noundef %12, ptr noundef nonnull @.str.2) #7
  br label %.thread19

14:                                               ; preds = %7, %1
  %15 = tail call i32 @H5CX_push() #7
  %16 = icmp slt i32 %15, 0
  br i1 %16, label %17, label %21

17:                                               ; preds = %14
  %18 = load i64, ptr @H5E_FUNC_g, align 8
  %19 = load i64, ptr @H5E_CANTSET_g, align 8
  %20 = tail call i32 (ptr, ptr, i32, i64, i64, ptr, ...) @H5E_printf_stack(ptr noundef nonnull @.str.1, ptr noundef nonnull @__func__.H5Ssel_iter_close, i32 noundef 3125, i64 noundef %18, i64 noundef %19, ptr noundef nonnull @.str.3) #7
  br label %.thread19

21:                                               ; preds = %14
  %22 = tail call i32 @H5E_clear_stack() #7
  %23 = tail call ptr @H5I_object_verify(i64 noundef %0, i32 noundef 15) #7
  %24 = icmp eq ptr %23, null
  br i1 %24, label %25, label %29

25:                                               ; preds = %21
  %26 = load i64, ptr @H5E_DATASPACE_g, align 8
  %27 = load i64, ptr @H5E_BADTYPE_g, align 8
  %28 = tail call i32 (ptr, ptr, i32, i64, i64, ptr, ...) @H5E_printf_stack(ptr noundef nonnull @.str.1, ptr noundef nonnull @__func__.H5Ssel_iter_close, i32 noundef 3129, i64 noundef %26, i64 noundef %27, ptr noundef nonnull @.str.88) #7
  br label %.thread25

29:                                               ; preds = %21
  %30 = tail call i32 @H5I_dec_app_ref(i64 noundef %0) #7
  %31 = icmp slt i32 %30, 0
  br i1 %31, label %32, label %37

32:                                               ; preds = %29
  %33 = load i64, ptr @H5E_DATASPACE_g, align 8
  %34 = load i64, ptr @H5E_CANTDEC_g, align 8
  %35 = tail call i32 (ptr, ptr, i32, i64, i64, ptr, ...) @H5E_printf_stack(ptr noundef nonnull @.str.1, ptr noundef nonnull @__func__.H5Ssel_iter_close, i32 noundef 3133, i64 noundef %33, i64 noundef %34, ptr noundef nonnull @.str.99) #7
  br label %.thread25

.thread25:                                        ; preds = %32, %25
  %36 = tail call i32 @H5CX_pop(i1 noundef zeroext true) #7
  br label %.thread19

37:                                               ; preds = %29
  %38 = tail call i32 @H5CX_pop(i1 noundef zeroext true) #7
  br label %40

.thread19:                                        ; preds = %17, %10, %.thread25
  %39 = tail call i32 @H5E_dump_api_stack() #7
  br label %40

40:                                               ; preds = %37, %.thread19
  %.0101422 = phi i32 [ -1, %.thread19 ], [ 0, %37 ]
  ret i32 %.0101422
}